; Function Attrs: mustprogress uwtable
define noundef double @_ZNK8QuantLib19NelsonSiegelFitting16discountFunctionERKNS_5ArrayEd(ptr noundef nonnull align 8 dereferenceable(176) %this, ptr nocapture noundef nonnull readonly align 8 dereferenceable(16) %x, double noundef %t) unnamed_addr #3 align 2 {
entry:
  %vtable = load ptr, ptr %this, align 8, !tbaa !14
  %vfn = getelementptr inbounds i8, ptr %vtable, i64 16
  %0 = load ptr, ptr %vfn, align 8
  %call = tail call noundef i64 %0(ptr noundef nonnull align 8 dereferenceable(176) %this)
  %1 = load ptr, ptr %x, align 8, !tbaa !28
  %2 = getelementptr double, ptr %1, i64 %call
  %arrayidx.i = getelementptr i8, ptr %2, i64 -8
  %3 = load double, ptr %arrayidx.i, align 8, !tbaa !49
  %4 = load double, ptr %1, align 8, !tbaa !49
  %arrayidx.i11 = getelementptr inbounds nuw i8, ptr %1, i64 8
  %5 = load double, ptr %arrayidx.i11, align 8, !tbaa !49
  %arrayidx.i12 = getelementptr inbounds nuw i8, ptr %1, i64 16
  %6 = load double, ptr %arrayidx.i12, align 8, !tbaa !49
  %add = fadd double %5, %6
  %fneg = fneg double %3
  %mul = fmul double %t, %fneg
  %call6 = tail call double @exp(double noundef %mul) #22, !tbaa !50
  %sub7 = fsub double 1.000000e+00, %call6
  %mul8 = fmul double %add, %sub7
  %add10 = fadd double %3, 0x3CB0000000000000
  %add12 = fadd double %t, 0x3CB0000000000000
  %mul13 = fmul double %add12, %add10
  %div = fdiv double %mul8, %mul13
  %add14 = fadd double %4, %div
  %call18 = tail call double @exp(double noundef %mul) #22, !tbaa !50
  %neg = fneg double %6
  %7 = tail call double @llvm.fmuladd.f64(double %neg, double %call18, double %add14)
  %fneg20 = fneg double %7
  %mul21 = fmul double %t, %fneg20
  %call22 = tail call double @exp(double noundef %mul21) #22, !tbaa !50
  ret double %call22
}